; Function Attrs: mustprogress uwtable
define noundef signext i8 @_ZNK6icu_7510DateFormat17isCalendarLenientEv(ptr nocapture noundef nonnull readonly align 8 dereferenceable(352) %this) unnamed_addr #3 align 2 {
entry:
  %fCalendar = getelementptr inbounds i8, ptr %this, i64 328
  %0 = load ptr, ptr %fCalendar, align 8
  %cmp.not = icmp eq ptr %0, null
  br i1 %cmp.not, label %return, label %if.then

if.then:                                          ; preds = %entry
  %call = tail call noundef signext i8 @_ZNK6icu_758Calendar9isLenientEv(ptr noundef nonnull align 8 dereferenceable(618) %0)
  br label %return

return:                                           ; preds = %entry, %if.then
  %retval.0 = phi i8 [ %call, %if.then ], [ 0, %entry ]
  ret i8 %retval.0
}